target datalayout = "e-m:e-p270:32:32-p271:32:32-p272:64:64-i64:64-i128:128-f80:128-n8:16:32:64-S128"
target triple = "x86_64-pc-linux-gnu"

%struct.WOLFSSL_BUFFER_INFO = type { ptr, i32 }
%struct.DerBuffer = type { ptr, ptr, i32, i32, i32 }
%struct.WOLFSSL = type <{ ptr, ptr, ptr, ptr, [48 x i8], [48 x i8], ptr, ptr, ptr, ptr, ptr, ptr, ptr, ptr, ptr, ptr, ptr, ptr, ptr, i32, [4 x i8], %struct.WOLFSSL_CIPHER, ptr, %struct.Ciphers, %struct.Ciphers, [8 x i8], %struct.Buffers, ptr, ptr, %struct.WOLFSSL_ALERT_HISTORY, %struct.WOLFSSL_ALERT, i32, i32, i32, i32, i32, i32, i32, i16, [2 x i8], i32, i8, %struct.RecordLayerHeader, %struct.MsgsReceived, %struct.ProtocolVersion, %struct.ProtocolVersion, %struct.CipherSpecs, [2 x i8], %struct.Keys, %struct.Options, ptr, i8, i8, i16, [10 x i16], i8, i8, i16, i16, [38 x i8], i32, i32, [4 x i8], ptr, i8, i8, [6 x i8], ptr, ptr, i16, i8, i8, i32, i8, [3 x i8], i32, %struct.OneTimeAuth, ptr }>
%struct.WOLFSSL_CIPHER = type { i8, i8, ptr }
%struct.Ciphers = type { ptr, ptr, ptr, ptr, i8, i8 }
%struct.Buffers = type { %struct.bufferStatic, %struct.bufferStatic, %struct.WOLFSSL_BUFFER_INFO, %struct.WOLFSSL_BUFFER_INFO, %struct.WOLFSSL_BUFFER_INFO, %struct.WOLFSSL_BUFFER_INFO, i32, i32, i8, i8, i8, i8, %struct.WOLFSSL_BUFFER_INFO, %struct.WOLFSSL_BUFFER_INFO, %struct.WOLFSSL_BUFFER_INFO, %struct.WOLFSSL_BUFFER_INFO, ptr, ptr, ptr, i8, i8, i32, i32, ptr, i32, [1 x ptr] }
%struct.bufferStatic = type { [5 x i8], ptr, i32, i32, i32, i8, i8 }
%struct.WOLFSSL_ALERT_HISTORY = type { %struct.WOLFSSL_ALERT, %struct.WOLFSSL_ALERT }
%struct.WOLFSSL_ALERT = type { i32, i32 }
%struct.RecordLayerHeader = type { i8, i8, i8, [2 x i8] }
%struct.MsgsReceived = type { i32 }
%struct.ProtocolVersion = type { i8, i8 }
%struct.CipherSpecs = type { i16, i16, i16, i16, i8, i8, i8, i8, i8, i8, i8, i8 }
%struct.Keys = type { [64 x i8], [64 x i8], [32 x i8], [32 x i8], [16 x i8], [16 x i8], [8 x i8], [12 x i8], [12 x i8], i32, i32, i32, i32, i32, i32, i8, i8, i8, i8 }
%struct.Options = type { i64, i64, i8, i8, i8, i8, i8, i8, i8, i8, i8, i8, i8, i8, i8, i8, i8, i8, i8, i8, i8, i8, i8, i16, i16, i16, i16, i16, i8 }
%struct.OneTimeAuth = type { ptr, i8 }

; Function Attrs: inlinehint nounwind uwtable
define internal void @ForceZero(ptr noundef %0, i32 noundef %1) #4 {
  %3 = alloca ptr, align 8
  %4 = alloca i32, align 4
  %5 = alloca ptr, align 8
  %6 = alloca ptr, align 8
  %7 = alloca i32, align 4
  store ptr %0, ptr %3, align 8, !tbaa !3
  store i32 %1, ptr %4, align 4, !tbaa !7
  call void @llvm.lifetime.start.p0(i64 8, ptr %5) #9
  %8 = load ptr, ptr %3, align 8, !tbaa !3
  store ptr %8, ptr %5, align 8, !tbaa !21
  call void @llvm.lifetime.start.p0(i64 8, ptr %6) #9
  call void @llvm.lifetime.start.p0(i64 4, ptr %7) #9
  %9 = load ptr, ptr %5, align 8, !tbaa !21
  %10 = ptrtoint ptr %9 to i64
  %11 = and i64 %10, 7
  %12 = sub i64 8, %11
  %13 = and i64 %12, 7
  %14 = trunc i64 %13 to i32
  store i32 %14, ptr %7, align 4, !tbaa !7
  %15 = load i32, ptr %4, align 4, !tbaa !7
  %16 = load i32, ptr %7, align 4, !tbaa !7
  %17 = icmp ult i32 %15, %16
  br i1 %17, label %18, label %20

18:                                               ; preds = %2
  %19 = load i32, ptr %4, align 4, !tbaa !7
  store i32 %19, ptr %7, align 4, !tbaa !7
  br label %20

20:                                               ; preds = %18, %2
  %21 = load i32, ptr %7, align 4, !tbaa !7
  %22 = load i32, ptr %4, align 4, !tbaa !7
  %23 = sub i32 %22, %21
  store i32 %23, ptr %4, align 4, !tbaa !7
  br label %24

24:                                               ; preds = %28, %20
  %25 = load i32, ptr %7, align 4, !tbaa !7
  %26 = add i32 %25, -1
  store i32 %26, ptr %7, align 4, !tbaa !7
  %27 = icmp ne i32 %25, 0
  br i1 %27, label %28, label %31

28:                                               ; preds = %24
  %29 = load ptr, ptr %5, align 8, !tbaa !21
  %30 = getelementptr inbounds nuw i8, ptr %29, i32 1
  store ptr %30, ptr %5, align 8, !tbaa !21
  store volatile i8 0, ptr %29, align 1, !tbaa !20
  br label %24, !llvm.loop !57

31:                                               ; preds = %24
  %32 = load ptr, ptr %5, align 8, !tbaa !21
  store ptr %32, ptr %6, align 8, !tbaa !51
  br label %33

33:                                               ; preds = %40, %31
  %34 = load i32, ptr %4, align 4, !tbaa !7
  %35 = zext i32 %34 to i64
  %36 = icmp uge i64 %35, 8
  br i1 %36, label %37, label %43

37:                                               ; preds = %33
  %38 = load ptr, ptr %6, align 8, !tbaa !51
  %39 = getelementptr inbounds nuw i64, ptr %38, i32 1
  store ptr %39, ptr %6, align 8, !tbaa !51
  store volatile i64 0, ptr %38, align 8, !tbaa !22
  br label %40

40:                                               ; preds = %37
  %41 = load i32, ptr %4, align 4, !tbaa !7
  %42 = sub i32 %41, 8
  store i32 %42, ptr %4, align 4, !tbaa !7
  br label %33, !llvm.loop !59

43:                                               ; preds = %33
  %44 = load ptr, ptr %6, align 8, !tbaa !51
  store ptr %44, ptr %5, align 8, !tbaa !21
  br label %45

45:                                               ; preds = %49, %43
  %46 = load i32, ptr %4, align 4, !tbaa !7
  %47 = add i32 %46, -1
  store i32 %47, ptr %4, align 4, !tbaa !7
  %48 = icmp ne i32 %46, 0
  br i1 %48, label %49, label %52

49:                                               ; preds = %45
  %50 = load ptr, ptr %5, align 8, !tbaa !21
  %51 = getelementptr inbounds nuw i8, ptr %50, i32 1
  store ptr %51, ptr %5, align 8, !tbaa !21
  store volatile i8 0, ptr %50, align 1, !tbaa !20
  br label %45, !llvm.loop !60

52:                                               ; preds = %45
  call void @llvm.lifetime.end.p0(i64 4, ptr %7) #9
  call void @llvm.lifetime.end.p0(i64 8, ptr %6) #9
  call void @llvm.lifetime.end.p0(i64 8, ptr %5) #9
  ret void
}

; Function Attrs: nounwind uwtable
define i32 @wolfSSL_UnloadCertsKeys(ptr noundef %0) #0 {
  %2 = alloca i32, align 4
  %3 = alloca ptr, align 8
  store ptr %0, ptr %3, align 8, !tbaa !61
  %4 = load ptr, ptr %3, align 8, !tbaa !61
  %5 = icmp eq ptr %4, null
  br i1 %5, label %6, label %9

6:                                                ; preds = %1
  br label %7

7:                                                ; preds = %6
  br label %8

8:                                                ; preds = %7
  store i32 -173, ptr %2, align 4
  br label %73

9:                                                ; preds = %1
  %10 = load ptr, ptr %3, align 8, !tbaa !61
  %11 = getelementptr inbounds nuw %struct.WOLFSSL, ptr %10, i32 0, i32 26
  %12 = getelementptr inbounds nuw %struct.Buffers, ptr %11, i32 0, i32 8
  %13 = load i8, ptr %12, align 8, !tbaa !267
  %14 = zext i8 %13 to i32
  %15 = icmp ne i32 %14, 0
  br i1 %15, label %16, label %30

16:                                               ; preds = %9
  %17 = load ptr, ptr %3, align 8, !tbaa !61
  %18 = getelementptr inbounds nuw %struct.WOLFSSL, ptr %17, i32 0, i32 73
  %19 = load i8, ptr %18, align 16, !tbaa !268
  %20 = icmp ne i8 %19, 0
  br i1 %20, label %30, label %21

21:                                               ; preds = %16
  br label %22

22:                                               ; preds = %21
  br label %23

23:                                               ; preds = %22
  %24 = load ptr, ptr %3, align 8, !tbaa !61
  %25 = getelementptr inbounds nuw %struct.WOLFSSL, ptr %24, i32 0, i32 26
  %26 = getelementptr inbounds nuw %struct.Buffers, ptr %25, i32 0, i32 17
  call void @FreeDer(ptr noundef %26)
  %27 = load ptr, ptr %3, align 8, !tbaa !61
  %28 = getelementptr inbounds nuw %struct.WOLFSSL, ptr %27, i32 0, i32 26
  %29 = getelementptr inbounds nuw %struct.Buffers, ptr %28, i32 0, i32 8
  store i8 0, ptr %29, align 8, !tbaa !267
  br label %30

30:                                               ; preds = %23, %16, %9
  %31 = load ptr, ptr %3, align 8, !tbaa !61
  %32 = getelementptr inbounds nuw %struct.WOLFSSL, ptr %31, i32 0, i32 26
  %33 = getelementptr inbounds nuw %struct.Buffers, ptr %32, i32 0, i32 9
  %34 = load i8, ptr %33, align 1, !tbaa !269
  %35 = icmp ne i8 %34, 0
  br i1 %35, label %36, label %45

36:                                               ; preds = %30
  br label %37

37:                                               ; preds = %36
  br label %38

38:                                               ; preds = %37
  %39 = load ptr, ptr %3, align 8, !tbaa !61
  %40 = getelementptr inbounds nuw %struct.WOLFSSL, ptr %39, i32 0, i32 26
  %41 = getelementptr inbounds nuw %struct.Buffers, ptr %40, i32 0, i32 23
  call void @FreeDer(ptr noundef %41)
  %42 = load ptr, ptr %3, align 8, !tbaa !61
  %43 = getelementptr inbounds nuw %struct.WOLFSSL, ptr %42, i32 0, i32 26
  %44 = getelementptr inbounds nuw %struct.Buffers, ptr %43, i32 0, i32 9
  store i8 0, ptr %44, align 1, !tbaa !269
  br label %45

45:                                               ; preds = %38, %30
  %46 = load ptr, ptr %3, align 8, !tbaa !61
  %47 = getelementptr inbounds nuw %struct.WOLFSSL, ptr %46, i32 0, i32 26
  %48 = getelementptr inbounds nuw %struct.Buffers, ptr %47, i32 0, i32 10
  %49 = load i8, ptr %48, align 2, !tbaa !270
  %50 = icmp ne i8 %49, 0
  br i1 %50, label %51, label %72

51:                                               ; preds = %45
  br label %52

52:                                               ; preds = %51
  br label %53

53:                                               ; preds = %52
  %54 = load ptr, ptr %3, align 8, !tbaa !61
  %55 = getelementptr inbounds nuw %struct.WOLFSSL, ptr %54, i32 0, i32 26
  %56 = getelementptr inbounds nuw %struct.Buffers, ptr %55, i32 0, i32 18
  %57 = load ptr, ptr %56, align 16, !tbaa !154
  %58 = getelementptr inbounds nuw %struct.DerBuffer, ptr %57, i32 0, i32 0
  %59 = load ptr, ptr %58, align 8, !tbaa !38
  %60 = load ptr, ptr %3, align 8, !tbaa !61
  %61 = getelementptr inbounds nuw %struct.WOLFSSL, ptr %60, i32 0, i32 26
  %62 = getelementptr inbounds nuw %struct.Buffers, ptr %61, i32 0, i32 18
  %63 = load ptr, ptr %62, align 16, !tbaa !154
  %64 = getelementptr inbounds nuw %struct.DerBuffer, ptr %63, i32 0, i32 2
  %65 = load i32, ptr %64, align 8, !tbaa !40
  call void @ForceZero(ptr noundef %59, i32 noundef %65)
  %66 = load ptr, ptr %3, align 8, !tbaa !61
  %67 = getelementptr inbounds nuw %struct.WOLFSSL, ptr %66, i32 0, i32 26
  %68 = getelementptr inbounds nuw %struct.Buffers, ptr %67, i32 0, i32 18
  call void @FreeDer(ptr noundef %68)
  %69 = load ptr, ptr %3, align 8, !tbaa !61
  %70 = getelementptr inbounds nuw %struct.WOLFSSL, ptr %69, i32 0, i32 26
  %71 = getelementptr inbounds nuw %struct.Buffers, ptr %70, i32 0, i32 10
  store i8 0, ptr %71, align 2, !tbaa !270
  br label %72

72:                                               ; preds = %53, %45
  store i32 1, ptr %2, align 4
  br label %73

73:                                               ; preds = %72, %8
  %74 = load i32, ptr %2, align 4
  ret i32 %74
}