; Function Attrs: nounwind uwtable
define range(i32 -173, 2) i32 @wolfSSL_UnloadCertsKeys(ptr noundef %0) local_unnamed_addr #0 {
  %2 = icmp eq ptr %0, null
  br i1 %2, label %38, label %3

3:                                                ; preds = %1
  %4 = getelementptr inbounds nuw i8, ptr %0, i64 488
  %5 = load i8, ptr %4, align 8, !tbaa !202
  %.not = icmp eq i8 %5, 0
  br i1 %.not, label %11, label %6

6:                                                ; preds = %3
  %7 = getelementptr inbounds nuw i8, ptr %0, i64 1200
  %8 = load i8, ptr %7, align 16, !tbaa !244
  %.not14 = icmp eq i8 %8, 0
  br i1 %.not14, label %9, label %11

9:                                                ; preds = %6
  %10 = getelementptr inbounds nuw i8, ptr %0, i64 568
  tail call void @FreeDer(ptr noundef nonnull %10) #22
  store i8 0, ptr %4, align 8, !tbaa !202
  br label %11

11:                                               ; preds = %9, %6, %3
  %12 = getelementptr inbounds nuw i8, ptr %0, i64 489
  %13 = load i8, ptr %12, align 1, !tbaa !199
  %.not15 = icmp eq i8 %13, 0
  br i1 %.not15, label %16, label %14

14:                                               ; preds = %11
  %15 = getelementptr inbounds nuw i8, ptr %0, i64 600
  tail call void @FreeDer(ptr noundef nonnull %15) #22
  store i8 0, ptr %12, align 1, !tbaa !199
  br label %16

16:                                               ; preds = %14, %11
  %17 = getelementptr inbounds nuw i8, ptr %0, i64 490
  %18 = load i8, ptr %17, align 2, !tbaa !194
  %.not16 = icmp eq i8 %18, 0
  br i1 %.not16, label %38, label %19

19:                                               ; preds = %16
  %20 = getelementptr inbounds nuw i8, ptr %0, i64 576
  %21 = load ptr, ptr %20, align 16, !tbaa !132
  %22 = load ptr, ptr %21, align 8, !tbaa !32
  %23 = getelementptr inbounds nuw i8, ptr %21, i64 16
  %24 = load i32, ptr %23, align 8, !tbaa !34
  %25 = ptrtoint ptr %22 to i64
  %26 = trunc i64 %25 to i32
  %27 = sub i32 0, %26
  %28 = and i32 %27, 7
  %spec.select.i = tail call i32 @llvm.umin.i32(i32 %24, i32 %28)
  %29 = sub i32 %24, %spec.select.i
  %.not24.i = icmp eq i32 %spec.select.i, 0
  br i1 %.not24.i, label %.preheader23.i, label %.lr.ph.i

.preheader23.i:                                   ; preds = %.lr.ph.i, %19
  %.016.lcssa.i = phi ptr [ %22, %19 ], [ %32, %.lr.ph.i ]
  %30 = icmp ugt i32 %29, 7
  br i1 %30, label %.lr.ph29.i, label %.preheader.i

.lr.ph.i:                                         ; preds = %19, %.lr.ph.i
  %.126.i = phi i32 [ %31, %.lr.ph.i ], [ %spec.select.i, %19 ]
  %.01625.i = phi ptr [ %32, %.lr.ph.i ], [ %22, %19 ]
  %31 = add nsw i32 %.126.i, -1
  %32 = getelementptr inbounds nuw i8, ptr %.01625.i, i64 1
  store volatile i8 0, ptr %.01625.i, align 1, !tbaa !43
  %.not.i = icmp eq i32 %31, 0
  br i1 %.not.i, label %.preheader23.i, label %.lr.ph.i, !llvm.loop !44

.preheader.i:                                     ; preds = %.lr.ph29.i, %.preheader23.i
  %.018.lcssa.i = phi i32 [ %29, %.preheader23.i ], [ %34, %.lr.ph29.i ]
  %.015.lcssa.i = phi ptr [ %.016.lcssa.i, %.preheader23.i ], [ %33, %.lr.ph29.i ]
  %.not2232.i = icmp eq i32 %.018.lcssa.i, 0
  br i1 %.not2232.i, label %ForceZero.exit, label %.lr.ph35.i

.lr.ph29.i:                                       ; preds = %.preheader23.i, %.lr.ph29.i
  %.01528.i = phi ptr [ %33, %.lr.ph29.i ], [ %.016.lcssa.i, %.preheader23.i ]
  %.01827.i = phi i32 [ %34, %.lr.ph29.i ], [ %29, %.preheader23.i ]
  %33 = getelementptr inbounds nuw i8, ptr %.01528.i, i64 8
  store volatile i64 0, ptr %.01528.i, align 8, !tbaa !27
  %34 = add i32 %.01827.i, -8
  %35 = icmp ugt i32 %34, 7
  br i1 %35, label %.lr.ph29.i, label %.preheader.i, !llvm.loop !45

.lr.ph35.i:                                       ; preds = %.preheader.i, %.lr.ph35.i
  %.11734.i = phi ptr [ %37, %.lr.ph35.i ], [ %.015.lcssa.i, %.preheader.i ]
  %.11933.i = phi i32 [ %36, %.lr.ph35.i ], [ %.018.lcssa.i, %.preheader.i ]
  %36 = add i32 %.11933.i, -1
  %37 = getelementptr inbounds nuw i8, ptr %.11734.i, i64 1
  store volatile i8 0, ptr %.11734.i, align 1, !tbaa !43
  %.not22.i = icmp eq i32 %36, 0
  br i1 %.not22.i, label %ForceZero.exit, label %.lr.ph35.i, !llvm.loop !46

ForceZero.exit:                                   ; preds = %.lr.ph35.i, %.preheader.i
  tail call void @FreeDer(ptr noundef nonnull %20) #22
  store i8 0, ptr %17, align 2, !tbaa !194
  br label %38

38:                                               ; preds = %16, %ForceZero.exit, %1
  %.0 = phi i32 [ -173, %1 ], [ 1, %ForceZero.exit ], [ 1, %16 ]
  ret i32 %.0
}